Certificate:
    Data:
        Version: 3 (0x2)
        Serial Number: 16443542743811311434 (0xe4333300fdd3474a)
    Signature Algorithm: sha256WithRSAEncryption
        Issuer: C=AU, ST=Some-State, O=Internet Widgits Pty Ltd, CN=evil CA
        Validity
            Not Before: May  8 14:52:12 2018 GMT
            Not After : May  7 14:52:12 2021 GMT
        Subject: C=AU, ST=Some-State, O=Internet Widgits Pty Ltd, CN=evil CA
        Subject Public Key Info:
            Public Key Algorithm: rsaEncryption
                Public-Key: (2048 bit)
                Modulus:
                    00:b2:04:25:42:31:05:a8:8c:9e:59:f6:59:28:68:
                    bf:78:be:b9:81:c5:f6:ed:f0:b1:4c:62:e9:c8:3e:
                    fb:96:b5:61:ae:7a:06:45:37:d1:de:58:ee:90:06:
                    42:30:39:01:75:c7:d4:e4:76:98:9a:d0:fa:b4:47:
                    16:97:93:44:05:bc:bb:7e:74:7d:85:ec:f9:4b:d0:
                    37:21:82:19:59:c9:db:18:71:9f:4f:09:00:41:a7:
                    6b:3d:f1:46:c6:97:9f:10:e0:7f:b4:47:17:76:8c:
                    45:e2:6d:0d:de:c3:6b:89:c8:3d:ba:b0:03:1f:1f:
                    0c:d7:ea:68:19:d2:60:17:53:17:60:e5:0c:53:8a:
                    7c:13:4d:88:2e:5a:e8:23:d6:0f:4e:40:b2:6f:85:
                    a5:71:e0:bd:b5:a4:06:6f:54:95:eb:b9:e2:cd:83:
                    c1:83:7a:e3:c0:c4:8c:78:46:23:82:f5:d2:4a:14:
                    15:e3:75:70:d1:44:93:5c:5d:ed:80:95:71:4f:ac:
                    68:d2:8a:5f:3e:f1:ed:d0:9b:5a:fe:2e:a9:30:6e:
                    50:6d:ac:24:13:60:86:8d:80:68:3a:46:34:f6:82:
                    3c:c1:29:7f:47:f5:d0:26:ab:73:ea:20:39:34:71:
                    b6:9a:d7:49:d6:28:2d:23:c4:dd:66:0a:8c:4b:e8:
                    b7:91
                Exponent: 65537 (0x10001)
        X509v3 extensions:
            X509v3 Subject Key Identifier: 
                12:D9:FD:B9:88:18:B4:6D:8B:E5:AB:F2:61:10:B3:62:56:75:57:35
            X509v3 Authority Key Identifier: 
                keyid:12:D9:FD:B9:88:18:B4:6D:8B:E5:AB:F2:61:10:B3:62:56:75:57:35

            X509v3 Basic Constraints: 
                CA:TRUE
    Signature Algorithm: sha256WithRSAEncryption
         b0:1b:64:20:f4:49:a2:25:a3:39:3c:db:39:52:aa:14:01:53:
         fc:99:3b:71:90:94:c9:c6:30:a8:06:79:64:3a:c2:d2:8c:8c:
         4a:37:e0:c2:61:8b:50:22:2a:b2:a2:4b:b7:98:63:07:66:0a:
         a7:49:a7:04:5b:c1:f0:d6:ea:2f:b9:3c:ff:1c:3d:05:f2:9f:
         4f:0e:fb:be:11:1f:9b:cb:9d:1b:91:b8:db:5e:1c:cb:1e:6b:
         6a:ac:22:d8:d3:27:c6:e2:5a:60:d4:bd:74:83:80:79:b3:d0:
         06:e2:ed:1b:c4:b7:2b:cb:eb:a1:83:ef:31:80:74:1b:97:fd:
         2a:8a:e2:01:d7:84:d1:b7:c5:3f:66:9e:e9:e0:d9:d9:dc:6b:
         e4:a6:71:d5:09:23:05:37:44:24:02:10:97:d7:71:56:83:0e:
         69:9b:a3:ba:6a:a7:8a:bb:d4:2e:d1:e4:76:a4:32:3f:9d:58:
         84:46:d3:a5:93:c4:5b:e2:bc:2a:9c:f1:1e:9d:3c:f4:42:1c:
         24:97:06:3f:7f:c3:9f:ef:01:0c:3b:f1:ba:70:1b:0f:37:ba:
         f2:8d:d2:22:13:bf:9a:97:52:b5:f2:2d:39:63:04:2a:fe:d7:
         6d:24:cc:b0:49:2a:b9:03:ca:e9:88:9e:5f:85:0b:60:2c:ef:
         0f:3c:41:09
-----BEGIN CERTIFICATE-----
MIIDgTCCAmmgAwIBAgIJAOQzMwD900dKMA0GCSqGSIb3DQEBCwUAMFcxCzAJBgNV
BAYTAkFVMRMwEQYDVQQIDApTb21lLVN0YXRlMSEwHwYDVQQKDBhJbnRlcm5ldCBX
aWRnaXRzIFB0eSBMdGQxEDAOBgNVBAMMB2V2aWwgQ0EwHhcNMTgwNTA4MTQ1MjEy
WhcNMjEwNTA3MTQ1MjEyWjBXMQswCQYDVQQGEwJBVTETMBEGA1UECAwKU29tZS1T
dGF0ZTEhMB8GA1UECgwYSW50ZXJuZXQgV2lkZ2l0cyBQdHkgTHRkMRAwDgYDVQQD
DAdldmlsIENBMIIBIjANBgkqhkiG9w0BAQEFAAOCAQ8AMIIBCgKCAQEAsgQlQjEF
qIyeWfZZKGi/eL65gcX27fCxTGLpyD77lrVhrnoGRTfR3ljukAZCMDkBdcfU5HaY
mtD6tEcWl5NEBby7fnR9hez5S9A3IYIZWcnbGHGfTwkAQadrPfFGxpefEOB/tEcX
doxF4m0N3sNricg9urADHx8M1+poGdJgF1MXYOUMU4p8E02ILlroI9YPTkCyb4Wl
ceC9taQGb1SV67nizYPBg3rjwMSMeEYjgvXSShQV43Vw0USTXF3tgJVxT6xo0opf
PvHt0Jta/i6pMG5QbawkE2CGjYBoOkY09oI8wSl/R/XQJqtz6iA5NHG2mtdJ1igt
I8TdZgqMS+i3kQIDAQABo1AwTjAdBgNVHQ4EFgQUEtn9uYgYtG2L5avyYRCzYlZ1
VzUwHwYDVR0jBBgwFoAUEtn9uYgYtG2L5avyYRCzYlZ1VzUwDAYDVR0TBAUwAwEB
/zANBgkqhkiG9w0BAQsFAAOCAQEAsBtkIPRJoiWjOTzbOVKqFAFT/Jk7cZCUycYw
qAZ5ZDrC0oyMSjfgwmGLUCIqsqJLt5hjB2YKp0mnBFvB8NbqL7k8/xw9BfKfTw77
vhEfm8udG5G4214cyx5raqwi2NMnxuJaYNS9dIOAebPQBuLtG8S3K8vroYPvMYB0
G5f9KoriAdeE0bfFP2ae6eDZ2dxr5KZx1QkjBTdEJAIQl9dxVoMOaZujumqnirvU
LtHkdqQyP51YhEbTpZPEW+K8KpzxHp089EIcJJcGP3/Dn+8BDDvxunAbDze68o3S
IhO/mpdStfItOWMEKv7XbSTMsEkquQPK6YieX4ULYCzvDzxBCQ==
-----END CERTIFICATE-----
