Certificate:
    Data:
        Version: 3 (0x2)
        Serial Number: 16443542743811311435 (0xe4333300fdd3474b)
    Signature Algorithm: sha256WithRSAEncryption
        Issuer: C=AU, ST=Some-State, O=Internet Widgits Pty Ltd, CN=evil CA
        Validity
            Not Before: May  8 14:53:07 2018 GMT
            Not After : May  8 14:53:07 2019 GMT
        Subject: C=AU, ST=Some-State, O=Internet Widgits Pty Ltd, CN=*
        Subject Public Key Info:
            Public Key Algorithm: rsaEncryption
                Public-Key: (2048 bit)
                Modulus:
                    00:b4:1a:d0:4f:d3:84:82:0e:90:e2:5a:d6:fa:94:
                    4f:a9:f1:07:f1:3d:da:c0:32:54:a6:67:b4:aa:b7:
                    27:46:12:0a:00:ff:09:b8:c4:8b:dd:4d:47:cf:ce:
                    07:ba:8f:06:28:7b:78:44:db:28:b9:86:c8:08:88:
                    16:4d:7f:13:06:48:82:96:18:6f:c0:fe:12:39:75:
                    2d:4f:a4:44:7b:1a:d2:84:4c:fa:89:4c:18:c9:70:
                    1a:a7:6c:f3:ec:d5:ac:bc:f2:8d:8b:09:02:11:81:
                    c0:76:bb:df:6a:b6:47:82:93:7b:f6:fd:bc:17:e1:
                    e9:a3:49:67:c9:cd:26:19:2e:27:9a:b6:9b:38:03:
                    bb:04:2b:9e:ca:3b:cc:ad:fd:18:97:98:89:56:aa:
                    49:7a:71:be:05:da:31:3e:23:80:bc:38:8d:72:df:
                    d6:4f:5e:de:bd:c3:01:f2:67:56:0f:65:18:74:8e:
                    79:7e:3f:42:c5:8c:2c:82:24:46:2f:42:71:3c:1d:
                    0d:ff:34:08:99:e4:93:37:2e:e2:f0:aa:2e:73:db:
                    ee:fc:f9:84:65:22:56:f7:d7:a3:f5:8d:e0:c5:28:
                    8b:d4:60:8b:c2:d1:20:15:32:ef:61:ee:bf:12:56:
                    31:9b:32:cb:01:91:bf:b7:ab:a9:2a:2e:02:d6:1d:
                    12:d7
                Exponent: 65537 (0x10001)
        X509v3 extensions:
            X509v3 Basic Constraints: 
                CA:FALSE
            Netscape Comment: 
                OpenSSL Generated Certificate
            X509v3 Subject Key Identifier: 
                82:8A:33:59:F5:B0:E0:F4:E1:12:57:AD:6B:81:3B:31:86:7D:F0:C6
            X509v3 Authority Key Identifier: 
                keyid:12:D9:FD:B9:88:18:B4:6D:8B:E5:AB:F2:61:10:B3:62:56:75:57:35

    Signature Algorithm: sha256WithRSAEncryption
         82:58:ed:13:5d:11:cf:cc:a9:8b:60:2d:13:7d:e9:d8:ce:4f:
         93:7f:c2:18:65:19:f8:ec:4c:84:16:c2:34:84:d5:6d:91:7b:
         40:c4:2d:e2:5a:13:72:b8:34:83:54:32:72:83:e6:48:70:67:
         47:c8:2f:8c:5e:67:83:d5:03:9f:10:cc:4d:46:8b:d5:11:f4:
         38:ed:95:cc:82:6c:8e:ae:2b:82:11:55:2c:8f:f6:95:55:98:
         3a:e5:81:8c:17:e2:13:33:53:85:de:dd:32:3c:2b:c0:05:38:
         f2:fd:58:ff:a0:dc:93:70:bc:ee:7d:0c:78:5f:d8:38:95:78:
         34:ab:23:8e:03:b0:a5:84:c0:32:bd:1b:89:1f:fd:c3:49:57:
         d0:40:0a:ae:13:c3:dc:6b:f3:94:c5:85:0f:39:b9:bc:8f:d5:
         90:25:ea:44:1a:3b:e2:22:33:9a:c3:87:5a:5e:8e:e2:b1:7d:
         3c:59:fe:a6:b3:88:e4:de:66:f8:7d:ac:42:d9:99:37:9a:9c:
         9e:00:ea:95:b5:a9:f7:44:c6:3c:a0:f7:df:ad:98:c3:11:0e:
         ac:5f:4e:78:6a:b8:01:3f:26:76:18:f8:e5:e6:db:a6:f4:32:
         20:56:d7:ba:51:c3:6f:eb:4d:25:2e:ab:9f:eb:b0:74:f2:bd:
         ac:28:f3:8e
-----BEGIN CERTIFICATE-----
MIIDpjCCAo6gAwIBAgIJAOQzMwD900dLMA0GCSqGSIb3DQEBCwUAMFcxCzAJBgNV
BAYTAkFVMRMwEQYDVQQIDApTb21lLVN0YXRlMSEwHwYDVQQKDBhJbnRlcm5ldCBX
aWRnaXRzIFB0eSBMdGQxEDAOBgNVBAMMB2V2aWwgQ0EwHhcNMTgwNTA4MTQ1MzA3
WhcNMTkwNTA4MTQ1MzA3WjBRMQswCQYDVQQGEwJBVTETMBEGA1UECAwKU29tZS1T
dGF0ZTEhMB8GA1UECgwYSW50ZXJuZXQgV2lkZ2l0cyBQdHkgTHRkMQowCAYDVQQD
DAEqMIIBIjANBgkqhkiG9w0BAQEFAAOCAQ8AMIIBCgKCAQEAtBrQT9OEgg6Q4lrW
+pRPqfEH8T3awDJUpme0qrcnRhIKAP8JuMSL3U1Hz84Huo8GKHt4RNsouYbICIgW
TX8TBkiClhhvwP4SOXUtT6REexrShEz6iUwYyXAap2zz7NWsvPKNiwkCEYHAdrvf
arZHgpN79v28F+Hpo0lnyc0mGS4nmrabOAO7BCueyjvMrf0Yl5iJVqpJenG+Bdox
PiOAvDiNct/WT17evcMB8mdWD2UYdI55fj9CxYwsgiRGL0JxPB0N/zQImeSTNy7i
8Kouc9vu/PmEZSJW99ej9Y3gxSiL1GCLwtEgFTLvYe6/ElYxmzLLAZG/t6upKi4C
1h0S1wIDAQABo3sweTAJBgNVHRMEAjAAMCwGCWCGSAGG+EIBDQQfFh1PcGVuU1NM
IEdlbmVyYXRlZCBDZXJ0aWZpY2F0ZTAdBgNVHQ4EFgQUgoozWfWw4PThEleta4E7
MYZ98MYwHwYDVR0jBBgwFoAUEtn9uYgYtG2L5avyYRCzYlZ1VzUwDQYJKoZIhvcN
AQELBQADggEBAIJY7RNdEc/MqYtgLRN96djOT5N/whhlGfjsTIQWwjSE1W2Re0DE
LeJaE3K4NINUMnKD5khwZ0fIL4xeZ4PVA58QzE1Gi9UR9DjtlcyCbI6uK4IRVSyP
9pVVmDrlgYwX4hMzU4Xe3TI8K8AFOPL9WP+g3JNwvO59DHhf2DiVeDSrI44DsKWE
wDK9G4kf/cNJV9BACq4Tw9xr85TFhQ85ubyP1ZAl6kQaO+IiM5rDh1pejuKxfTxZ
/qaziOTeZvh9rELZmTeanJ4A6pW1qfdExjyg99+tmMMRDqxfTnhquAE/JnYY+OXm
26b0MiBW17pRw2/rTSUuq5/rsHTyvawo844=
-----END CERTIFICATE-----
